target datalayout = "e-m:e-p270:32:32-p271:32:32-p272:64:64-i64:64-i128:128-f80:128-n8:16:32:64-S128"
target triple = "x86_64-pc-linux-gnu"

; Function Attrs: nounwind null_pointer_is_valid sspstrong uwtable
define internal i32 @csec_multiplier(i32 noundef %0) #8 {
  %2 = alloca i32, align 4
  %3 = alloca i32, align 4
  store i32 %0, ptr %3, align 4
  %4 = load i32, ptr %3, align 4
  %5 = icmp ult i32 %4, 10
  br i1 %5, label %6, label %7

6:                                                ; preds = %1
  store i32 100000000, ptr %2, align 4
  br label %36

7:                                                ; preds = %1
  %8 = load i32, ptr %3, align 4
  %9 = icmp ult i32 %8, 100
  br i1 %9, label %10, label %11

10:                                               ; preds = %7
  store i32 10000000, ptr %2, align 4
  br label %36

11:                                               ; preds = %7
  %12 = load i32, ptr %3, align 4
  %13 = icmp ult i32 %12, 1000
  br i1 %13, label %14, label %15

14:                                               ; preds = %11
  store i32 1000000, ptr %2, align 4
  br label %36

15:                                               ; preds = %11
  %16 = load i32, ptr %3, align 4
  %17 = icmp ult i32 %16, 10000
  br i1 %17, label %18, label %19

18:                                               ; preds = %15
  store i32 100000, ptr %2, align 4
  br label %36

19:                                               ; preds = %15
  %20 = load i32, ptr %3, align 4
  %21 = icmp ult i32 %20, 100000
  br i1 %21, label %22, label %23

22:                                               ; preds = %19
  store i32 10000, ptr %2, align 4
  br label %36

23:                                               ; preds = %19
  %24 = load i32, ptr %3, align 4
  %25 = icmp ult i32 %24, 1000000
  br i1 %25, label %26, label %27

26:                                               ; preds = %23
  store i32 1000, ptr %2, align 4
  br label %36

27:                                               ; preds = %23
  %28 = load i32, ptr %3, align 4
  %29 = icmp ult i32 %28, 10000000
  br i1 %29, label %30, label %31

30:                                               ; preds = %27
  store i32 100, ptr %2, align 4
  br label %36

31:                                               ; preds = %27
  %32 = load i32, ptr %3, align 4
  %33 = icmp ult i32 %32, 100000000
  br i1 %33, label %34, label %35

34:                                               ; preds = %31
  store i32 10, ptr %2, align 4
  br label %36

35:                                               ; preds = %31
  store i32 1, ptr %2, align 4
  br label %36

36:                                               ; preds = %35, %34, %30, %26, %22, %18, %14, %10, %6
  %37 = load i32, ptr %2, align 4
  ret i32 %37
}