; Function Attrs: mustprogress nofree norecurse nosync nounwind null_pointer_is_valid sspstrong willreturn memory(none) uwtable
define internal fastcc range(i32 1, 100000001) i32 @csec_multiplier(i32 noundef %0) unnamed_addr #7 {
  %2 = icmp ult i32 %0, 10
  br i1 %2, label %17, label %3

3:                                                ; preds = %1
  %4 = icmp ult i32 %0, 100
  br i1 %4, label %17, label %5

5:                                                ; preds = %3
  %6 = icmp ult i32 %0, 1000
  br i1 %6, label %17, label %7

7:                                                ; preds = %5
  %8 = icmp ult i32 %0, 10000
  br i1 %8, label %17, label %9

9:                                                ; preds = %7
  %10 = icmp ult i32 %0, 100000
  br i1 %10, label %17, label %11

11:                                               ; preds = %9
  %12 = icmp ult i32 %0, 1000000
  br i1 %12, label %17, label %13

13:                                               ; preds = %11
  %14 = icmp ult i32 %0, 10000000
  br i1 %14, label %17, label %15

15:                                               ; preds = %13
  %16 = icmp ult i32 %0, 100000000
  %. = select i1 %16, i32 10, i32 1
  br label %17

17:                                               ; preds = %15, %13, %11, %9, %7, %5, %3, %1
  %.0 = phi i32 [ 100000000, %1 ], [ 10000000, %3 ], [ 1000000, %5 ], [ 100000, %7 ], [ 10000, %9 ], [ 1000, %11 ], [ 100, %13 ], [ %., %15 ]
  ret i32 %.0
}